target datalayout = "e-m:e-p270:32:32-p271:32:32-p272:64:64-i64:64-i128:128-f80:128-n8:16:32:64-S128"
target triple = "x86_64-unknown-linux-gnu"

%class.anon.112 = type { ptr, ptr, ptr, ptr, ptr, ptr }
%"struct.facebook::velox::Timestamp" = type { i64, i64 }

; Function Attrs: mustprogress nounwind uwtable
define linkonce_odr noundef i64 @_ZNSt14numeric_limitsIlE3maxEv() #1 comdat align 2 {
entry:
  ret i64 9223372036854775807
}

; Function Attrs: mustprogress nounwind uwtable
define linkonce_odr noundef i64 @_ZNSt14numeric_limitsIlE3minEv() #1 comdat align 2 {
entry:
  ret i64 -9223372036854775808
}

; Function Attrs: mustprogress nounwind uwtable
define linkonce_odr noundef i64 @_ZNK8facebook5velox9Timestamp8toMillisEv(ptr noundef nonnull align 8 dereferenceable(16) %this) #1 comdat align 2 {
entry:
  %this.addr = alloca ptr, align 8
  %result = alloca i128, align 16
  store ptr %this, ptr %this.addr, align 8
  %this1 = load ptr, ptr %this.addr, align 8
  %seconds_ = getelementptr inbounds %"struct.facebook::velox::Timestamp", ptr %this1, i32 0, i32 0
  %0 = load i64, ptr %seconds_, align 8
  %conv = sext i64 %0 to i128
  %mul = mul nsw i128 %conv, 1000
  %nanos_ = getelementptr inbounds %"struct.facebook::velox::Timestamp", ptr %this1, i32 0, i32 1
  %1 = load i64, ptr %nanos_, align 8
  %div = udiv i64 %1, 1000000
  %conv2 = sext i64 %div to i128
  %add = add nsw i128 %mul, %conv2
  store i128 %add, ptr %result, align 16
  %2 = load i128, ptr %result, align 16
  %call = call noundef i64 @_ZNSt14numeric_limitsIlE3minEv() #18
  %conv3 = sext i64 %call to i128
  %cmp = icmp slt i128 %2, %conv3
  br i1 %cmp, label %if.then, label %lor.lhs.false

lor.lhs.false:                                    ; preds = %entry
  %3 = load i128, ptr %result, align 16
  %call4 = call noundef i64 @_ZNSt14numeric_limitsIlE3maxEv() #18
  %conv5 = sext i64 %call4 to i128
  %cmp6 = icmp sgt i128 %3, %conv5
  br i1 %cmp6, label %if.then, label %if.end

if.then:                                          ; preds = %lor.lhs.false, %entry
  call void @llvm.trap()
  br label %if.end

if.end:                                           ; preds = %if.then, %lor.lhs.false
  %4 = load i128, ptr %result, align 16
  %conv7 = trunc i128 %4 to i64
  ret i64 %conv7
}

; Function Attrs: mustprogress uwtable
define internal void @"_ZZN8facebook5velox12_GLOBAL__N_117castFromTimestampERKNS0_12SimpleVectorINS0_9TimestampEEERNS0_4exec7EvalCtxERKNS0_17SelectivityVectorERNS0_9RowVectorEENK3$_0clIiEEDaT_"(ptr noundef nonnull align 8 dereferenceable(48) %this, i32 noundef %row) #0 align 2 {
entry:
  %this.addr = alloca ptr, align 8
  %row.addr = alloca i32, align 4
  %ts = alloca %"struct.facebook::velox::Timestamp", align 8
  store ptr %this, ptr %this.addr, align 8
  store i32 %row, ptr %row.addr, align 4
  %this1 = load ptr, ptr %this.addr, align 8
  %0 = getelementptr inbounds %class.anon.112, ptr %this1, i32 0, i32 0
  %1 = load ptr, ptr %0, align 8
  %2 = load i32, ptr %row.addr, align 4
  %vtable = load ptr, ptr %1, align 8
  %vfn = getelementptr inbounds ptr, ptr %vtable, i64 4
  %3 = load ptr, ptr %vfn, align 8
  %call = call noundef zeroext i1 %3(ptr noundef nonnull align 8 dereferenceable(99) %1, i32 noundef %2)
  br i1 %call, label %if.then, label %if.else

if.then:                                          ; preds = %entry
  %4 = getelementptr inbounds %class.anon.112, ptr %this1, i32 0, i32 1
  %5 = load ptr, ptr %4, align 8
  %6 = load i32, ptr %row.addr, align 4
  %vtable2 = load ptr, ptr %5, align 8
  %vfn3 = getelementptr inbounds ptr, ptr %vtable2, i64 18
  %7 = load ptr, ptr %vfn3, align 8
  call void %7(ptr noundef nonnull align 8 dereferenceable(99) %5, i32 noundef %6, i1 noundef zeroext true)
  br label %if.end12

if.else:                                          ; preds = %entry
  %8 = getelementptr inbounds %class.anon.112, ptr %this1, i32 0, i32 0
  %9 = load ptr, ptr %8, align 8
  %10 = load i32, ptr %row.addr, align 4
  %vtable4 = load ptr, ptr %9, align 8
  %vfn5 = getelementptr inbounds ptr, ptr %vtable4, i64 44
  %11 = load ptr, ptr %vfn5, align 8
  %call6 = call { i64, i64 } %11(ptr noundef nonnull align 8 dereferenceable(160) %9, i32 noundef %10)
  %12 = getelementptr inbounds { i64, i64 }, ptr %ts, i32 0, i32 0
  %13 = extractvalue { i64, i64 } %call6, 0
  store i64 %13, ptr %12, align 8
  %14 = getelementptr inbounds { i64, i64 }, ptr %ts, i32 0, i32 1
  %15 = extractvalue { i64, i64 } %call6, 1
  store i64 %15, ptr %14, align 8
  %16 = getelementptr inbounds %class.anon.112, ptr %this1, i32 0, i32 2
  %17 = load ptr, ptr %16, align 8
  %18 = load i8, ptr %17, align 1
  %tobool = trunc i8 %18 to i1
  br i1 %tobool, label %if.end, label %if.then7

if.then7:                                         ; preds = %if.else
  %19 = getelementptr inbounds %class.anon.112, ptr %this1, i32 0, i32 3
  %20 = load ptr, ptr %19, align 8
  %21 = load i64, ptr %20, align 8
  %conv = trunc i64 %21 to i16
  call void @_ZN8facebook5velox9Timestamp5toGMTEs(ptr noundef nonnull align 8 dereferenceable(16) %ts, i16 noundef signext %conv)
  br label %if.end

if.end:                                           ; preds = %if.then7, %if.else
  %call8 = call noundef i64 @_ZNK8facebook5velox9Timestamp8toMillisEv(ptr noundef nonnull align 8 dereferenceable(16) %ts)
  %22 = getelementptr inbounds %class.anon.112, ptr %this1, i32 0, i32 4
  %23 = load ptr, ptr %22, align 8
  %24 = load ptr, ptr %23, align 8
  %25 = load i32, ptr %row.addr, align 4
  %idxprom = sext i32 %25 to i64
  %arrayidx = getelementptr inbounds i64, ptr %24, i64 %idxprom
  store i64 %call8, ptr %arrayidx, align 8
  %26 = getelementptr inbounds %class.anon.112, ptr %this1, i32 0, i32 3
  %27 = load ptr, ptr %26, align 8
  %28 = load i64, ptr %27, align 8
  %conv9 = trunc i64 %28 to i16
  %29 = getelementptr inbounds %class.anon.112, ptr %this1, i32 0, i32 5
  %30 = load ptr, ptr %29, align 8
  %31 = load ptr, ptr %30, align 8
  %32 = load i32, ptr %row.addr, align 4
  %idxprom10 = sext i32 %32 to i64
  %arrayidx11 = getelementptr inbounds i16, ptr %31, i64 %idxprom10
  store i16 %conv9, ptr %arrayidx11, align 2
  br label %if.end12

if.end12:                                         ; preds = %if.end, %if.then
  ret void
}