; Function Attrs: mustprogress uwtable
define internal fastcc void @"_ZZN8facebook5velox12_GLOBAL__N_117castFromTimestampERKNS0_12SimpleVectorINS0_9TimestampEEERNS0_4exec7EvalCtxERKNS0_17SelectivityVectorERNS0_9RowVectorEENK3$_0clIiEEDaT_"(ptr nocapture noundef nonnull readonly align 8 dereferenceable(48) %this, i32 noundef %row) unnamed_addr #1 align 2 {
entry:
  %ts = alloca %"struct.facebook::velox::Timestamp", align 8
  %0 = load ptr, ptr %this, align 8
  %vtable = load ptr, ptr %0, align 8
  %vfn = getelementptr inbounds i8, ptr %vtable, i64 32
  %1 = load ptr, ptr %vfn, align 8
  %call = tail call noundef zeroext i1 %1(ptr noundef nonnull align 8 dereferenceable(99) %0, i32 noundef %row)
  br i1 %call, label %if.then, label %if.else

if.then:                                          ; preds = %entry
  %2 = getelementptr inbounds i8, ptr %this, i64 8
  %3 = load ptr, ptr %2, align 8
  %vtable2 = load ptr, ptr %3, align 8
  %vfn3 = getelementptr inbounds i8, ptr %vtable2, i64 144
  %4 = load ptr, ptr %vfn3, align 8
  tail call void %4(ptr noundef nonnull align 8 dereferenceable(99) %3, i32 noundef %row, i1 noundef zeroext true)
  br label %if.end12

if.else:                                          ; preds = %entry
  %5 = load ptr, ptr %this, align 8
  %vtable4 = load ptr, ptr %5, align 8
  %vfn5 = getelementptr inbounds i8, ptr %vtable4, i64 352
  %6 = load ptr, ptr %vfn5, align 8
  %call6 = tail call { i64, i64 } %6(ptr noundef nonnull align 8 dereferenceable(160) %5, i32 noundef %row)
  %7 = extractvalue { i64, i64 } %call6, 0
  store i64 %7, ptr %ts, align 8
  %8 = getelementptr inbounds i8, ptr %ts, i64 8
  %9 = extractvalue { i64, i64 } %call6, 1
  store i64 %9, ptr %8, align 8
  %10 = getelementptr inbounds i8, ptr %this, i64 16
  %11 = load ptr, ptr %10, align 8
  %12 = load i8, ptr %11, align 1
  %13 = and i8 %12, 1
  %tobool.not = icmp eq i8 %13, 0
  br i1 %tobool.not, label %if.then7, label %if.end

if.then7:                                         ; preds = %if.else
  %14 = getelementptr inbounds i8, ptr %this, i64 24
  %15 = load ptr, ptr %14, align 8
  %16 = load i64, ptr %15, align 8
  %conv = trunc i64 %16 to i16
  call void @_ZN8facebook5velox9Timestamp5toGMTEs(ptr noundef nonnull align 8 dereferenceable(16) %ts, i16 noundef signext %conv)
  %.pre = load i64, ptr %ts, align 8
  %.pre5 = load i64, ptr %8, align 8
  br label %if.end

if.end:                                           ; preds = %if.then7, %if.else
  %17 = phi i64 [ %.pre5, %if.then7 ], [ %9, %if.else ]
  %18 = phi i64 [ %.pre, %if.then7 ], [ %7, %if.else ]
  %conv.i = sext i64 %18 to i128
  %mul.i = mul nsw i128 %conv.i, 1000
  %div.i = udiv i64 %17, 1000000
  %conv2.i = zext nneg i64 %div.i to i128
  %add.i = add nsw i128 %mul.i, %conv2.i
  %19 = add nsw i128 %add.i, -9223372036854775808
  %or.cond.i = icmp ult i128 %19, -18446744073709551616
  br i1 %or.cond.i, label %if.then.i, label %_ZNK8facebook5velox9Timestamp8toMillisEv.exit

if.then.i:                                        ; preds = %if.end
  call void @llvm.trap()
  unreachable

_ZNK8facebook5velox9Timestamp8toMillisEv.exit:    ; preds = %if.end
  %conv7.i = trunc i128 %add.i to i64
  %20 = getelementptr inbounds i8, ptr %this, i64 32
  %21 = load ptr, ptr %20, align 8
  %22 = load ptr, ptr %21, align 8
  %idxprom = sext i32 %row to i64
  %arrayidx = getelementptr inbounds i64, ptr %22, i64 %idxprom
  store i64 %conv7.i, ptr %arrayidx, align 8
  %23 = getelementptr inbounds i8, ptr %this, i64 24
  %24 = load ptr, ptr %23, align 8
  %25 = load i64, ptr %24, align 8
  %conv9 = trunc i64 %25 to i16
  %26 = getelementptr inbounds i8, ptr %this, i64 40
  %27 = load ptr, ptr %26, align 8
  %28 = load ptr, ptr %27, align 8
  %arrayidx11 = getelementptr inbounds i16, ptr %28, i64 %idxprom
  store i16 %conv9, ptr %arrayidx11, align 2
  br label %if.end12

if.end12:                                         ; preds = %_ZNK8facebook5velox9Timestamp8toMillisEv.exit, %if.then
  ret void
}